target datalayout = "e-m:e-p270:32:32-p271:32:32-p272:64:64-i64:64-i128:128-f80:128-n8:16:32:64-S128"
target triple = "x86_64-pc-linux-gnu"

%struct.repository_format = type { i32, i32, ptr, i32, i32, i32, i32, i32, i32, i32, ptr, %struct.string_list, %struct.string_list }
%struct.string_list = type { ptr, i64, i64, i8, ptr }
%struct.string_list_item = type { ptr, ptr }

@.str.1 = private unnamed_addr constant [1 x i8] zeroinitializer, align 1
@.str.27 = private unnamed_addr constant [42 x i8] c"Expected git repo version <= %d, found %d\00", align 1
@.str.28 = private unnamed_addr constant [36 x i8] c"unknown repository extension found:\00", align 1
@.str.29 = private unnamed_addr constant [37 x i8] c"unknown repository extensions found:\00", align 1
@.str.30 = private unnamed_addr constant [5 x i8] c"\0A\09%s\00", align 1
@.str.31 = private unnamed_addr constant [48 x i8] c"repo version is 0, but v1-only extension found:\00", align 1
@.str.32 = private unnamed_addr constant [49 x i8] c"repo version is 0, but v1-only extensions found:\00", align 1
@git_gettext_enabled = external global i32, align 4

; Function Attrs: inlinehint nounwind uwtable
define internal void @strbuf_addstr(ptr noundef %0, ptr noundef %1) #2 {
  %3 = alloca ptr, align 8
  %4 = alloca ptr, align 8
  store ptr %0, ptr %3, align 8, !tbaa !26
  store ptr %1, ptr %4, align 8, !tbaa !4
  %5 = load ptr, ptr %3, align 8, !tbaa !26
  %6 = load ptr, ptr %4, align 8, !tbaa !4
  %7 = load ptr, ptr %4, align 8, !tbaa !4
  %8 = call i64 @strlen(ptr noundef %7) #14
  call void @strbuf_add(ptr noundef %5, ptr noundef %6, i64 noundef %8)
  ret void
}

; Function Attrs: inlinehint nounwind uwtable
define internal ptr @Q_(ptr noundef %0, ptr noundef %1, i64 noundef %2) #2 {
  %4 = alloca ptr, align 8
  %5 = alloca ptr, align 8
  %6 = alloca ptr, align 8
  %7 = alloca i64, align 8
  store ptr %0, ptr %5, align 8, !tbaa !4
  store ptr %1, ptr %6, align 8, !tbaa !4
  store i64 %2, ptr %7, align 8, !tbaa !16
  %8 = load i32, ptr @git_gettext_enabled, align 4, !tbaa !9
  %9 = icmp ne i32 %8, 0
  br i1 %9, label %19, label %10

10:                                               ; preds = %3
  %11 = load i64, ptr %7, align 8, !tbaa !16
  %12 = icmp eq i64 %11, 1
  br i1 %12, label %13, label %15

13:                                               ; preds = %10
  %14 = load ptr, ptr %5, align 8, !tbaa !4
  br label %17

15:                                               ; preds = %10
  %16 = load ptr, ptr %6, align 8, !tbaa !4
  br label %17

17:                                               ; preds = %15, %13
  %18 = phi ptr [ %14, %13 ], [ %16, %15 ]
  store ptr %18, ptr %4, align 8
  br label %24

19:                                               ; preds = %3
  %20 = load ptr, ptr %5, align 8, !tbaa !4
  %21 = load ptr, ptr %6, align 8, !tbaa !4
  %22 = load i64, ptr %7, align 8, !tbaa !16
  %23 = call ptr @dcngettext(ptr noundef null, ptr noundef %20, ptr noundef %21, i64 noundef %22, i32 noundef 5) #13
  store ptr %23, ptr %4, align 8
  br label %24

24:                                               ; preds = %19, %17
  %25 = load ptr, ptr %4, align 8
  ret ptr %25
}

; Function Attrs: inlinehint nounwind uwtable
define internal ptr @_(ptr noundef %0) #2 {
  %2 = alloca ptr, align 8
  %3 = alloca ptr, align 8
  store ptr %0, ptr %3, align 8, !tbaa !4
  %4 = load ptr, ptr %3, align 8, !tbaa !4
  %5 = load i8, ptr %4, align 1, !tbaa !13
  %6 = icmp ne i8 %5, 0
  br i1 %6, label %8, label %7

7:                                                ; preds = %1
  store ptr @.str.1, ptr %2, align 8
  br label %16

8:                                                ; preds = %1
  %9 = load i32, ptr @git_gettext_enabled, align 4, !tbaa !9
  %10 = icmp ne i32 %9, 0
  br i1 %10, label %13, label %11

11:                                               ; preds = %8
  %12 = load ptr, ptr %3, align 8, !tbaa !4
  store ptr %12, ptr %2, align 8
  br label %16

13:                                               ; preds = %8
  %14 = load ptr, ptr %3, align 8, !tbaa !4
  %15 = call ptr @dcgettext(ptr noundef null, ptr noundef %14, i32 noundef 5) #13
  store ptr %15, ptr %2, align 8
  br label %16

16:                                               ; preds = %13, %11, %7
  %17 = load ptr, ptr %2, align 8
  ret ptr %17
}

; Function Attrs: nounwind uwtable
define dso_local i32 @verify_repository_format(ptr noundef %0, ptr noundef %1) #0 {
  %3 = alloca i32, align 4
  %4 = alloca ptr, align 8
  %5 = alloca ptr, align 8
  %6 = alloca i32, align 4
  %7 = alloca i32, align 4
  store ptr %0, ptr %4, align 8, !tbaa !45
  store ptr %1, ptr %5, align 8, !tbaa !26
  %8 = load ptr, ptr %4, align 8, !tbaa !45
  %9 = getelementptr inbounds nuw %struct.repository_format, ptr %8, i32 0, i32 0
  %10 = load i32, ptr %9, align 8, !tbaa !37
  %11 = icmp slt i32 1, %10
  br i1 %11, label %12, label %18

12:                                               ; preds = %2
  %13 = load ptr, ptr %5, align 8, !tbaa !26
  %14 = call ptr @_(ptr noundef @.str.27)
  %15 = load ptr, ptr %4, align 8, !tbaa !45
  %16 = getelementptr inbounds nuw %struct.repository_format, ptr %15, i32 0, i32 0
  %17 = load i32, ptr %16, align 8, !tbaa !37
  call void (ptr, ptr, ...) @strbuf_addf(ptr noundef %13, ptr noundef %14, i32 noundef 1, i32 noundef %17)
  store i32 -1, ptr %3, align 4
  br label %101

18:                                               ; preds = %2
  %19 = load ptr, ptr %4, align 8, !tbaa !45
  %20 = getelementptr inbounds nuw %struct.repository_format, ptr %19, i32 0, i32 0
  %21 = load i32, ptr %20, align 8, !tbaa !37
  %22 = icmp sge i32 %21, 1
  br i1 %22, label %23, label %59

23:                                               ; preds = %18
  %24 = load ptr, ptr %4, align 8, !tbaa !45
  %25 = getelementptr inbounds nuw %struct.repository_format, ptr %24, i32 0, i32 11
  %26 = getelementptr inbounds nuw %struct.string_list, ptr %25, i32 0, i32 1
  %27 = load i64, ptr %26, align 8, !tbaa !41
  %28 = icmp ne i64 %27, 0
  br i1 %28, label %29, label %59

29:                                               ; preds = %23
  call void @llvm.lifetime.start.p0(i64 4, ptr %6) #13
  %30 = load ptr, ptr %5, align 8, !tbaa !26
  %31 = load ptr, ptr %4, align 8, !tbaa !45
  %32 = getelementptr inbounds nuw %struct.repository_format, ptr %31, i32 0, i32 11
  %33 = getelementptr inbounds nuw %struct.string_list, ptr %32, i32 0, i32 1
  %34 = load i64, ptr %33, align 8, !tbaa !41
  %35 = call ptr @Q_(ptr noundef @.str.28, ptr noundef @.str.29, i64 noundef %34)
  call void @strbuf_addstr(ptr noundef %30, ptr noundef %35)
  store i32 0, ptr %6, align 4, !tbaa !9
  br label %36

36:                                               ; preds = %55, %29
  %37 = load i32, ptr %6, align 4, !tbaa !9
  %38 = sext i32 %37 to i64
  %39 = load ptr, ptr %4, align 8, !tbaa !45
  %40 = getelementptr inbounds nuw %struct.repository_format, ptr %39, i32 0, i32 11
  %41 = getelementptr inbounds nuw %struct.string_list, ptr %40, i32 0, i32 1
  %42 = load i64, ptr %41, align 8, !tbaa !41
  %43 = icmp ult i64 %38, %42
  br i1 %43, label %44, label %58

44:                                               ; preds = %36
  %45 = load ptr, ptr %5, align 8, !tbaa !26
  %46 = load ptr, ptr %4, align 8, !tbaa !45
  %47 = getelementptr inbounds nuw %struct.repository_format, ptr %46, i32 0, i32 11
  %48 = getelementptr inbounds nuw %struct.string_list, ptr %47, i32 0, i32 0
  %49 = load ptr, ptr %48, align 8, !tbaa !42
  %50 = load i32, ptr %6, align 4, !tbaa !9
  %51 = sext i32 %50 to i64
  %52 = getelementptr inbounds %struct.string_list_item, ptr %49, i64 %51
  %53 = getelementptr inbounds nuw %struct.string_list_item, ptr %52, i32 0, i32 0
  %54 = load ptr, ptr %53, align 8, !tbaa !43
  call void (ptr, ptr, ...) @strbuf_addf(ptr noundef %45, ptr noundef @.str.30, ptr noundef %54)
  br label %55

55:                                               ; preds = %44
  %56 = load i32, ptr %6, align 4, !tbaa !9
  %57 = add nsw i32 %56, 1
  store i32 %57, ptr %6, align 4, !tbaa !9
  br label %36, !llvm.loop !47

58:                                               ; preds = %36
  store i32 -1, ptr %3, align 4
  call void @llvm.lifetime.end.p0(i64 4, ptr %6) #13
  br label %101

59:                                               ; preds = %23, %18
  %60 = load ptr, ptr %4, align 8, !tbaa !45
  %61 = getelementptr inbounds nuw %struct.repository_format, ptr %60, i32 0, i32 0
  %62 = load i32, ptr %61, align 8, !tbaa !37
  %63 = icmp eq i32 %62, 0
  br i1 %63, label %64, label %100

64:                                               ; preds = %59
  %65 = load ptr, ptr %4, align 8, !tbaa !45
  %66 = getelementptr inbounds nuw %struct.repository_format, ptr %65, i32 0, i32 12
  %67 = getelementptr inbounds nuw %struct.string_list, ptr %66, i32 0, i32 1
  %68 = load i64, ptr %67, align 8, !tbaa !48
  %69 = icmp ne i64 %68, 0
  br i1 %69, label %70, label %100

70:                                               ; preds = %64
  call void @llvm.lifetime.start.p0(i64 4, ptr %7) #13
  %71 = load ptr, ptr %5, align 8, !tbaa !26
  %72 = load ptr, ptr %4, align 8, !tbaa !45
  %73 = getelementptr inbounds nuw %struct.repository_format, ptr %72, i32 0, i32 12
  %74 = getelementptr inbounds nuw %struct.string_list, ptr %73, i32 0, i32 1
  %75 = load i64, ptr %74, align 8, !tbaa !48
  %76 = call ptr @Q_(ptr noundef @.str.31, ptr noundef @.str.32, i64 noundef %75)
  call void @strbuf_addstr(ptr noundef %71, ptr noundef %76)
  store i32 0, ptr %7, align 4, !tbaa !9
  br label %77

77:                                               ; preds = %96, %70
  %78 = load i32, ptr %7, align 4, !tbaa !9
  %79 = sext i32 %78 to i64
  %80 = load ptr, ptr %4, align 8, !tbaa !45
  %81 = getelementptr inbounds nuw %struct.repository_format, ptr %80, i32 0, i32 12
  %82 = getelementptr inbounds nuw %struct.string_list, ptr %81, i32 0, i32 1
  %83 = load i64, ptr %82, align 8, !tbaa !48
  %84 = icmp ult i64 %79, %83
  br i1 %84, label %85, label %99

85:                                               ; preds = %77
  %86 = load ptr, ptr %5, align 8, !tbaa !26
  %87 = load ptr, ptr %4, align 8, !tbaa !45
  %88 = getelementptr inbounds nuw %struct.repository_format, ptr %87, i32 0, i32 12
  %89 = getelementptr inbounds nuw %struct.string_list, ptr %88, i32 0, i32 0
  %90 = load ptr, ptr %89, align 8, !tbaa !49
  %91 = load i32, ptr %7, align 4, !tbaa !9
  %92 = sext i32 %91 to i64
  %93 = getelementptr inbounds %struct.string_list_item, ptr %90, i64 %92
  %94 = getelementptr inbounds nuw %struct.string_list_item, ptr %93, i32 0, i32 0
  %95 = load ptr, ptr %94, align 8, !tbaa !43
  call void (ptr, ptr, ...) @strbuf_addf(ptr noundef %86, ptr noundef @.str.30, ptr noundef %95)
  br label %96

96:                                               ; preds = %85
  %97 = load i32, ptr %7, align 4, !tbaa !9
  %98 = add nsw i32 %97, 1
  store i32 %98, ptr %7, align 4, !tbaa !9
  br label %77, !llvm.loop !50

99:                                               ; preds = %77
  store i32 -1, ptr %3, align 4
  call void @llvm.lifetime.end.p0(i64 4, ptr %7) #13
  br label %101

100:                                              ; preds = %64, %59
  store i32 0, ptr %3, align 4
  br label %101

101:                                              ; preds = %100, %99, %58, %12
  %102 = load i32, ptr %3, align 4
  ret i32 %102
}