; Function Attrs: nounwind uwtable
define dso_local range(i32 -1, 1) i32 @verify_repository_format(ptr noundef readonly captures(none) %0, ptr noundef %1) local_unnamed_addr #0 {
  %3 = load i32, ptr %0, align 8, !tbaa !29
  %4 = icmp sgt i32 %3, 1
  br i1 %4, label %5, label %10

5:                                                ; preds = %2
  %6 = load i32, ptr @git_gettext_enabled, align 4, !tbaa !7
  %.not4.i = icmp eq i32 %6, 0
  br i1 %.not4.i, label %_.exit, label %7

7:                                                ; preds = %5
  %8 = tail call ptr @dcgettext(ptr noundef null, ptr noundef nonnull @.str.27, i32 noundef 5) #25
  %.pre = load i32, ptr %0, align 8, !tbaa !29
  br label %_.exit

_.exit:                                           ; preds = %5, %7
  %9 = phi i32 [ %.pre, %7 ], [ %3, %5 ]
  %.0.i = phi ptr [ %8, %7 ], [ @.str.27, %5 ]
  tail call void (ptr, ptr, ...) @strbuf_addf(ptr noundef %1, ptr noundef %.0.i, i32 noundef 1, i32 noundef %9) #25
  br label %.thread

10:                                               ; preds = %2
  switch i32 %3, label %.thread [
    i32 1, label %11
    i32 0, label %29
  ]

11:                                               ; preds = %10
  %12 = getelementptr inbounds nuw i8, ptr %0, i64 56
  %13 = getelementptr inbounds nuw i8, ptr %0, i64 64
  %14 = load i64, ptr %13, align 8, !tbaa !38
  %.not = icmp eq i64 %14, 0
  br i1 %.not, label %.thread, label %15

15:                                               ; preds = %11
  %16 = load i32, ptr @git_gettext_enabled, align 4, !tbaa !7
  %.not.i = icmp eq i32 %16, 0
  br i1 %.not.i, label %17, label %20

17:                                               ; preds = %15
  %18 = icmp eq i64 %14, 1
  %19 = select i1 %18, ptr @.str.28, ptr @.str.29
  br label %Q_.exit

20:                                               ; preds = %15
  %21 = tail call ptr @dcngettext(ptr noundef null, ptr noundef nonnull @.str.28, ptr noundef nonnull @.str.29, i64 noundef range(i64 1, 0) %14, i32 noundef 5) #25
  br label %Q_.exit

Q_.exit:                                          ; preds = %17, %20
  %.0.i31 = phi ptr [ %21, %20 ], [ %19, %17 ]
  %22 = tail call i64 @strlen(ptr noundef nonnull dereferenceable(1) %.0.i31) #24
  tail call void @strbuf_add(ptr noundef %1, ptr noundef nonnull %.0.i31, i64 noundef %22) #25
  %23 = load i64, ptr %13, align 8, !tbaa !38
  %.not40 = icmp eq i64 %23, 0
  br i1 %.not40, label %.thread, label %.lr.ph38

.lr.ph38:                                         ; preds = %Q_.exit, %.lr.ph38
  %indvars.iv43 = phi i64 [ %indvars.iv.next44, %.lr.ph38 ], [ 0, %Q_.exit ]
  %24 = load ptr, ptr %12, align 8, !tbaa !33
  %25 = getelementptr inbounds nuw %struct.string_list_item, ptr %24, i64 %indvars.iv43
  %26 = load ptr, ptr %25, align 8, !tbaa !34
  tail call void (ptr, ptr, ...) @strbuf_addf(ptr noundef %1, ptr noundef nonnull @.str.30, ptr noundef %26) #25
  %indvars.iv.next44 = add nuw nsw i64 %indvars.iv43, 1
  %27 = load i64, ptr %13, align 8, !tbaa !38
  %28 = icmp ugt i64 %27, %indvars.iv.next44
  br i1 %28, label %.lr.ph38, label %.thread, !llvm.loop !39

29:                                               ; preds = %10
  %30 = getelementptr inbounds nuw i8, ptr %0, i64 96
  %31 = getelementptr inbounds nuw i8, ptr %0, i64 104
  %32 = load i64, ptr %31, align 8, !tbaa !40
  %.not30 = icmp eq i64 %32, 0
  br i1 %.not30, label %.thread, label %33

33:                                               ; preds = %29
  %34 = load i32, ptr @git_gettext_enabled, align 4, !tbaa !7
  %.not.i32 = icmp eq i32 %34, 0
  br i1 %.not.i32, label %35, label %38

35:                                               ; preds = %33
  %36 = icmp eq i64 %32, 1
  %37 = select i1 %36, ptr @.str.31, ptr @.str.32
  br label %Q_.exit34

38:                                               ; preds = %33
  %39 = tail call ptr @dcngettext(ptr noundef null, ptr noundef nonnull @.str.31, ptr noundef nonnull @.str.32, i64 noundef range(i64 1, 0) %32, i32 noundef 5) #25
  br label %Q_.exit34

Q_.exit34:                                        ; preds = %35, %38
  %.0.i33 = phi ptr [ %39, %38 ], [ %37, %35 ]
  %40 = tail call i64 @strlen(ptr noundef nonnull dereferenceable(1) %.0.i33) #24
  tail call void @strbuf_add(ptr noundef %1, ptr noundef nonnull %.0.i33, i64 noundef %40) #25
  %41 = load i64, ptr %31, align 8, !tbaa !40
  %.not39 = icmp eq i64 %41, 0
  br i1 %.not39, label %.thread, label %.lr.ph

.lr.ph:                                           ; preds = %Q_.exit34, %.lr.ph
  %indvars.iv = phi i64 [ %indvars.iv.next, %.lr.ph ], [ 0, %Q_.exit34 ]
  %42 = load ptr, ptr %30, align 8, !tbaa !41
  %43 = getelementptr inbounds nuw %struct.string_list_item, ptr %42, i64 %indvars.iv
  %44 = load ptr, ptr %43, align 8, !tbaa !34
  tail call void (ptr, ptr, ...) @strbuf_addf(ptr noundef %1, ptr noundef nonnull @.str.30, ptr noundef %44) #25
  %indvars.iv.next = add nuw nsw i64 %indvars.iv, 1
  %45 = load i64, ptr %31, align 8, !tbaa !40
  %46 = icmp ugt i64 %45, %indvars.iv.next
  br i1 %46, label %.lr.ph, label %.thread, !llvm.loop !42

.thread:                                          ; preds = %.lr.ph, %.lr.ph38, %Q_.exit34, %Q_.exit, %10, %11, %29, %_.exit
  %.024 = phi i32 [ -1, %_.exit ], [ 0, %29 ], [ 0, %11 ], [ 0, %10 ], [ -1, %Q_.exit ], [ -1, %Q_.exit34 ], [ -1, %.lr.ph38 ], [ -1, %.lr.ph ]
  ret i32 %.024
}